; Function Attrs: nounwind uwtable
define ptr @l_Lean_Elab_Deriving_Repr_mkBody(ptr noundef %0, ptr noundef %1, ptr noundef %2, ptr noundef %3, ptr noundef %4, ptr noundef %5, ptr noundef %6, ptr noundef %7, ptr noundef %8, ptr noundef %9) local_unnamed_addr #0 {
  %11 = tail call ptr @lean_st_ref_get(ptr noundef %8, ptr noundef %9) #6
  %12 = getelementptr inbounds nuw i8, ptr %11, i64 8
  %13 = load ptr, ptr %12, align 8, !tbaa !4
  %14 = ptrtoint ptr %13 to i64
  %15 = and i64 %14, 1
  %.not = icmp eq i64 %15, 0
  br i1 %.not, label %16, label %lean_inc.exit44

16:                                               ; preds = %10
  %.val.i = load i32, ptr %13, align 4, !tbaa !8
  %17 = icmp sgt i32 %.val.i, 0
  br i1 %17, label %18, label %20, !prof !11

18:                                               ; preds = %16
  %19 = add nuw i32 %.val.i, 1
  store i32 %19, ptr %13, align 4, !tbaa !8
  br label %lean_inc.exit44

20:                                               ; preds = %16
  %.not.i57 = icmp eq i32 %.val.i, 0
  br i1 %.not.i57, label %lean_inc.exit44, label %21

21:                                               ; preds = %20
  tail call void @lean_inc_ref_cold(ptr noundef nonnull %13) #6
  br label %lean_inc.exit44

lean_inc.exit44:                                  ; preds = %21, %20, %18, %10
  %22 = getelementptr inbounds nuw i8, ptr %11, i64 16
  %23 = load ptr, ptr %22, align 8, !tbaa !4
  %24 = ptrtoint ptr %23 to i64
  %25 = and i64 %24, 1
  %.not70 = icmp eq i64 %25, 0
  br i1 %.not70, label %26, label %lean_inc.exit43

26:                                               ; preds = %lean_inc.exit44
  %.val.i58 = load i32, ptr %23, align 4, !tbaa !8
  %27 = icmp sgt i32 %.val.i58, 0
  br i1 %27, label %28, label %30, !prof !11

28:                                               ; preds = %26
  %29 = add nuw i32 %.val.i58, 1
  store i32 %29, ptr %23, align 4, !tbaa !8
  br label %lean_inc.exit43

30:                                               ; preds = %26
  %.not.i59 = icmp eq i32 %.val.i58, 0
  br i1 %.not.i59, label %lean_inc.exit43, label %31

31:                                               ; preds = %30
  tail call void @lean_inc_ref_cold(ptr noundef nonnull %23) #6
  br label %lean_inc.exit43

lean_inc.exit43:                                  ; preds = %31, %30, %28, %lean_inc.exit44
  %32 = ptrtoint ptr %11 to i64
  %33 = and i64 %32, 1
  %.not71 = icmp eq i64 %33, 0
  br i1 %.not71, label %34, label %lean_dec.exit48

34:                                               ; preds = %lean_inc.exit43
  %35 = load i32, ptr %11, align 4, !tbaa !8
  %36 = icmp sgt i32 %35, 1
  br i1 %36, label %37, label %39, !prof !11

37:                                               ; preds = %34
  %38 = add nsw i32 %35, -1
  store i32 %38, ptr %11, align 4, !tbaa !8
  br label %lean_dec.exit48

39:                                               ; preds = %34
  %.not.i = icmp eq i32 %35, 0
  br i1 %.not.i, label %lean_dec.exit48, label %40

40:                                               ; preds = %39
  tail call void @lean_dec_ref_cold(ptr noundef nonnull %11) #6
  br label %lean_dec.exit48

lean_dec.exit48:                                  ; preds = %40, %39, %37, %lean_inc.exit43
  %41 = getelementptr inbounds nuw i8, ptr %13, i64 8
  %42 = load ptr, ptr %41, align 8, !tbaa !4
  %43 = ptrtoint ptr %42 to i64
  %44 = and i64 %43, 1
  %.not72 = icmp eq i64 %44, 0
  br i1 %.not72, label %45, label %lean_inc.exit42

45:                                               ; preds = %lean_dec.exit48
  %.val.i61 = load i32, ptr %42, align 4, !tbaa !8
  %46 = icmp sgt i32 %.val.i61, 0
  br i1 %46, label %47, label %49, !prof !11

47:                                               ; preds = %45
  %48 = add nuw i32 %.val.i61, 1
  store i32 %48, ptr %42, align 4, !tbaa !8
  br label %lean_inc.exit42

49:                                               ; preds = %45
  %.not.i62 = icmp eq i32 %.val.i61, 0
  br i1 %.not.i62, label %lean_inc.exit42, label %50

50:                                               ; preds = %49
  tail call void @lean_inc_ref_cold(ptr noundef nonnull %42) #6
  br label %lean_inc.exit42

lean_inc.exit42:                                  ; preds = %50, %49, %47, %lean_dec.exit48
  br i1 %.not, label %51, label %lean_dec.exit47

51:                                               ; preds = %lean_inc.exit42
  %52 = load i32, ptr %13, align 4, !tbaa !8
  %53 = icmp sgt i32 %52, 1
  br i1 %53, label %54, label %56, !prof !11

54:                                               ; preds = %51
  %55 = add nsw i32 %52, -1
  store i32 %55, ptr %13, align 4, !tbaa !8
  br label %lean_dec.exit47

56:                                               ; preds = %51
  %.not.i49 = icmp eq i32 %52, 0
  br i1 %.not.i49, label %lean_dec.exit47, label %57

57:                                               ; preds = %56
  tail call void @lean_dec_ref_cold(ptr noundef nonnull %13) #6
  br label %lean_dec.exit47

lean_dec.exit47:                                  ; preds = %57, %56, %54, %lean_inc.exit42
  %58 = getelementptr inbounds nuw i8, ptr %1, i64 8
  %59 = load ptr, ptr %58, align 8, !tbaa !4
  %60 = ptrtoint ptr %59 to i64
  %61 = and i64 %60, 1
  %.not73 = icmp eq i64 %61, 0
  br i1 %.not73, label %62, label %lean_inc.exit41

62:                                               ; preds = %lean_dec.exit47
  %.val.i64 = load i32, ptr %59, align 4, !tbaa !8
  %63 = icmp sgt i32 %.val.i64, 0
  br i1 %63, label %64, label %66, !prof !11

64:                                               ; preds = %62
  %65 = add nuw i32 %.val.i64, 1
  store i32 %65, ptr %59, align 4, !tbaa !8
  br label %lean_inc.exit41

66:                                               ; preds = %62
  %.not.i65 = icmp eq i32 %.val.i64, 0
  br i1 %.not.i65, label %lean_inc.exit41, label %67

67:                                               ; preds = %66
  tail call void @lean_inc_ref_cold(ptr noundef nonnull %59) #6
  br label %lean_inc.exit41

lean_inc.exit41:                                  ; preds = %67, %66, %64, %lean_dec.exit47
  %68 = getelementptr inbounds nuw i8, ptr %59, i64 8
  %69 = load ptr, ptr %68, align 8, !tbaa !4
  %70 = ptrtoint ptr %69 to i64
  %71 = and i64 %70, 1
  %.not74 = icmp eq i64 %71, 0
  br i1 %.not74, label %72, label %lean_inc.exit

72:                                               ; preds = %lean_inc.exit41
  %.val.i67 = load i32, ptr %69, align 4, !tbaa !8
  %73 = icmp sgt i32 %.val.i67, 0
  br i1 %73, label %74, label %76, !prof !11

74:                                               ; preds = %72
  %75 = add nuw i32 %.val.i67, 1
  store i32 %75, ptr %69, align 4, !tbaa !8
  br label %lean_inc.exit

76:                                               ; preds = %72
  %.not.i68 = icmp eq i32 %.val.i67, 0
  br i1 %.not.i68, label %lean_inc.exit, label %77

77:                                               ; preds = %76
  tail call void @lean_inc_ref_cold(ptr noundef nonnull %69) #6
  br label %lean_inc.exit

lean_inc.exit:                                    ; preds = %77, %76, %74, %lean_inc.exit41
  br i1 %.not73, label %78, label %lean_dec.exit46

78:                                               ; preds = %lean_inc.exit
  %79 = load i32, ptr %59, align 4, !tbaa !8
  %80 = icmp sgt i32 %79, 1
  br i1 %80, label %81, label %83, !prof !11

81:                                               ; preds = %78
  %82 = add nsw i32 %79, -1
  store i32 %82, ptr %59, align 4, !tbaa !8
  br label %lean_dec.exit46

83:                                               ; preds = %78
  %.not.i51 = icmp eq i32 %79, 0
  br i1 %.not.i51, label %lean_dec.exit46, label %84

84:                                               ; preds = %83
  tail call void @lean_dec_ref_cold(ptr noundef nonnull %59) #6
  br label %lean_dec.exit46

lean_dec.exit46:                                  ; preds = %84, %83, %81, %lean_inc.exit
  %85 = tail call zeroext i8 @l_Lean_isStructure(ptr noundef %42, ptr noundef %69) #6
  %86 = icmp eq i8 %85, 0
  br i1 %86, label %87, label %89

87:                                               ; preds = %lean_dec.exit46
  %88 = tail call ptr @l_Lean_Elab_Deriving_Repr_mkBodyForInduct(ptr noundef %0, ptr noundef nonnull %1, ptr noundef %2, ptr noundef %3, ptr noundef %4, ptr noundef %5, ptr noundef %6, ptr noundef %7, ptr noundef %8, ptr noundef %23)
  br label %lean_dec.exit

89:                                               ; preds = %lean_dec.exit46
  %90 = ptrtoint ptr %2 to i64
  %91 = and i64 %90, 1
  %.not75 = icmp eq i64 %91, 0
  br i1 %.not75, label %92, label %lean_dec.exit45

92:                                               ; preds = %89
  %93 = load i32, ptr %2, align 4, !tbaa !8
  %94 = icmp sgt i32 %93, 1
  br i1 %94, label %95, label %97, !prof !11

95:                                               ; preds = %92
  %96 = add nsw i32 %93, -1
  store i32 %96, ptr %2, align 4, !tbaa !8
  br label %lean_dec.exit45

97:                                               ; preds = %92
  %.not.i53 = icmp eq i32 %93, 0
  br i1 %.not.i53, label %lean_dec.exit45, label %98

98:                                               ; preds = %97
  tail call void @lean_dec_ref_cold(ptr noundef nonnull %2) #6
  br label %lean_dec.exit45

lean_dec.exit45:                                  ; preds = %98, %97, %95, %89
  %99 = tail call ptr @l_Lean_Elab_Deriving_Repr_mkBodyForStruct(ptr noundef %0, ptr noundef nonnull %1, ptr noundef %3, ptr noundef %4, ptr noundef %5, ptr noundef %6, ptr noundef %7, ptr noundef %8, ptr noundef %23)
  %100 = ptrtoint ptr %0 to i64
  %101 = and i64 %100, 1
  %.not76 = icmp eq i64 %101, 0
  br i1 %.not76, label %102, label %lean_dec.exit

102:                                              ; preds = %lean_dec.exit45
  %103 = load i32, ptr %0, align 4, !tbaa !8
  %104 = icmp sgt i32 %103, 1
  br i1 %104, label %105, label %107, !prof !11

105:                                              ; preds = %102
  %106 = add nsw i32 %103, -1
  store i32 %106, ptr %0, align 4, !tbaa !8
  br label %lean_dec.exit

107:                                              ; preds = %102
  %.not.i55 = icmp eq i32 %103, 0
  br i1 %.not.i55, label %lean_dec.exit, label %108

108:                                              ; preds = %107
  tail call void @lean_dec_ref_cold(ptr noundef nonnull %0) #6
  br label %lean_dec.exit

lean_dec.exit:                                    ; preds = %lean_dec.exit45, %105, %107, %108, %87
  %.0 = phi ptr [ %88, %87 ], [ %99, %108 ], [ %99, %107 ], [ %99, %105 ], [ %99, %lean_dec.exit45 ]
  ret ptr %.0
}